target datalayout = "e-m:e-p270:32:32-p271:32:32-p272:64:64-i64:64-i128:128-f80:128-n8:16:32:64-S128"
target triple = "x86_64-pc-linux-gnu"

%struct.ParseContext_ = type { %struct.TokenData, i32, %union.SourceSpan, %union.SourceSpan, ptr, %struct.Lexer }
%struct.TokenData = type { ptr, i64, %union.anon.86 }
%union.anon.86 = type { %struct.anon.89 }
%struct.anon.89 = type { %struct.Int128_, i8 }
%struct.Int128_ = type { i64, i64 }
%union.SourceSpan = type { i64 }
%struct.Lexer = type { ptr, ptr, ptr, ptr, i32, i32, ptr, ptr, ptr, %struct.TokenData, %union.SourceSpan, i32, i32 }

@.str.16 = private unnamed_addr constant [13 x i8] c"Expected ';'\00", align 1
@.str.133 = private unnamed_addr constant [50 x i8] c"Another module name was expected after the comma.\00", align 1
@.str.134 = private unnamed_addr constant [119 x i8] c"An import should be followed by a plain identifier, not a string. Did you accidentally put the module name between \22\22?\00", align 1
@.str.135 = private unnamed_addr constant [73 x i8] c"Import statement should be followed by the name of the module to import.\00", align 1
@attribute_list = external global [41 x ptr], align 16
@.str.136 = private unnamed_addr constant [42 x i8] c"Only '@public' is a valid attribute here.\00", align 1
@.str.137 = private unnamed_addr constant [48 x i8] c"'::' was expected here, did you make a mistake?\00", align 1

; Function Attrs: nounwind uwtable
define internal zeroext i1 @parse_import(ptr noundef %0) #0 {
  %2 = alloca ptr, align 8
  %3 = alloca i32, align 4
  %4 = alloca ptr, align 8
  %5 = alloca i32, align 4
  %6 = alloca ptr, align 8
  %7 = alloca ptr, align 8
  %8 = alloca ptr, align 8
  %9 = alloca i32, align 4
  %10 = alloca ptr, align 8
  %11 = alloca i32, align 4
  %12 = alloca ptr, align 8
  %13 = alloca i32, align 4
  %14 = alloca ptr, align 8
  %15 = alloca i32, align 4
  %16 = alloca ptr, align 8
  %17 = alloca i32, align 4
  %18 = alloca i1, align 1
  %19 = alloca ptr, align 8
  %20 = alloca i8, align 1
  %21 = alloca ptr, align 8
  %22 = alloca i8, align 1
  store ptr %0, ptr %19, align 8
  %23 = load ptr, ptr %19, align 8
  store ptr %23, ptr %2, align 8
  store i32 130, ptr %3, align 4
  %24 = load ptr, ptr %2, align 8
  call void @advance(ptr noundef %24) #6
  store i8 0, ptr %20, align 1
  br label %25

25:                                               ; preds = %115, %1
  %26 = load ptr, ptr %19, align 8
  store ptr %26, ptr %8, align 8
  store i32 64, ptr %9, align 4
  %27 = load ptr, ptr %8, align 8
  %28 = getelementptr inbounds %struct.ParseContext_, ptr %27, i32 0, i32 1
  %29 = load i32, ptr %28, align 8
  %30 = load i32, ptr %9, align 4
  %31 = icmp eq i32 %29, %30
  br i1 %31, label %57, label %32

32:                                               ; preds = %25
  %33 = load i8, ptr %20, align 1
  %34 = trunc i8 %33 to i1
  br i1 %34, label %35, label %40

35:                                               ; preds = %32
  %36 = load ptr, ptr %19, align 8
  %37 = getelementptr inbounds %struct.ParseContext_, ptr %36, i32 0, i32 3
  %38 = getelementptr inbounds %union.SourceSpan, ptr %37, i32 0, i32 0
  %39 = load i64, ptr %38, align 8
  call void (i64, ptr, ...) @sema_error_at(i64 %39, ptr noundef @.str.133)
  store i1 false, ptr %18, align 1
  br label %132

40:                                               ; preds = %32
  %41 = load ptr, ptr %19, align 8
  store ptr %41, ptr %10, align 8
  store i32 76, ptr %11, align 4
  %42 = load ptr, ptr %10, align 8
  %43 = getelementptr inbounds %struct.ParseContext_, ptr %42, i32 0, i32 1
  %44 = load i32, ptr %43, align 8
  %45 = load i32, ptr %11, align 4
  %46 = icmp eq i32 %44, %45
  br i1 %46, label %47, label %52

47:                                               ; preds = %40
  %48 = load ptr, ptr %19, align 8
  %49 = getelementptr inbounds %struct.ParseContext_, ptr %48, i32 0, i32 2
  %50 = getelementptr inbounds %union.SourceSpan, ptr %49, i32 0, i32 0
  %51 = load i64, ptr %50, align 8
  call void (i64, ptr, ...) @sema_error_at(i64 %51, ptr noundef @.str.134)
  store i1 false, ptr %18, align 1
  br label %132

52:                                               ; preds = %40
  %53 = load ptr, ptr %19, align 8
  %54 = getelementptr inbounds %struct.ParseContext_, ptr %53, i32 0, i32 2
  %55 = getelementptr inbounds %union.SourceSpan, ptr %54, i32 0, i32 0
  %56 = load i64, ptr %55, align 8
  call void (i64, ptr, ...) @sema_error_at(i64 %56, ptr noundef @.str.135)
  store i1 false, ptr %18, align 1
  br label %132

57:                                               ; preds = %25
  store i8 1, ptr %20, align 1
  %58 = load ptr, ptr %19, align 8
  %59 = call ptr @parse_module_path(ptr noundef %58)
  store ptr %59, ptr %21, align 8
  %60 = load ptr, ptr %21, align 8
  %61 = icmp ne ptr %60, null
  br i1 %61, label %63, label %62

62:                                               ; preds = %57
  store i1 false, ptr %18, align 1
  br label %132

63:                                               ; preds = %57
  store i8 0, ptr %22, align 1
  %64 = load ptr, ptr %19, align 8
  store ptr %64, ptr %12, align 8
  store i32 73, ptr %13, align 4
  %65 = load ptr, ptr %12, align 8
  %66 = getelementptr inbounds %struct.ParseContext_, ptr %65, i32 0, i32 1
  %67 = load i32, ptr %66, align 8
  %68 = load i32, ptr %13, align 4
  %69 = icmp eq i32 %67, %68
  br i1 %69, label %70, label %85

70:                                               ; preds = %63
  %71 = load ptr, ptr %19, align 8
  store ptr %71, ptr %6, align 8
  %72 = load ptr, ptr %6, align 8
  %73 = getelementptr inbounds %struct.TokenData, ptr %72, i32 0, i32 2
  %74 = load ptr, ptr %73, align 8
  %75 = load ptr, ptr getelementptr inbounds ([41 x ptr], ptr @attribute_list, i64 0, i64 30), align 16
  %76 = icmp ne ptr %74, %75
  br i1 %76, label %77, label %82

77:                                               ; preds = %70
  %78 = load ptr, ptr %19, align 8
  %79 = getelementptr inbounds %struct.ParseContext_, ptr %78, i32 0, i32 2
  %80 = getelementptr inbounds %union.SourceSpan, ptr %79, i32 0, i32 0
  %81 = load i64, ptr %80, align 8
  call void (i64, ptr, ...) @sema_error_at(i64 %81, ptr noundef @.str.136)
  store i1 false, ptr %18, align 1
  br label %132

82:                                               ; preds = %70
  store i8 1, ptr %22, align 1
  %83 = load ptr, ptr %19, align 8
  store ptr %83, ptr %4, align 8
  store i32 73, ptr %5, align 4
  %84 = load ptr, ptr %4, align 8
  call void @advance(ptr noundef %84) #6
  br label %85

85:                                               ; preds = %82, %63
  %86 = load ptr, ptr %19, align 8
  %87 = getelementptr inbounds %struct.ParseContext_, ptr %86, i32 0, i32 4
  %88 = load ptr, ptr %87, align 8
  %89 = load ptr, ptr %21, align 8
  %90 = load i8, ptr %22, align 1
  %91 = trunc i8 %90 to i1
  %92 = call zeroext i1 @unit_add_import(ptr noundef %88, ptr noundef %89, i1 noundef zeroext %91)
  %93 = load ptr, ptr %19, align 8
  store ptr %93, ptr %14, align 8
  store i32 7, ptr %15, align 4
  %94 = load ptr, ptr %14, align 8
  %95 = getelementptr inbounds %struct.ParseContext_, ptr %94, i32 0, i32 1
  %96 = load i32, ptr %95, align 8
  %97 = load i32, ptr %15, align 4
  %98 = icmp eq i32 %96, %97
  br i1 %98, label %99, label %111

99:                                               ; preds = %85
  %100 = load ptr, ptr %19, align 8
  store ptr %100, ptr %7, align 8
  %101 = load ptr, ptr %7, align 8
  %102 = getelementptr inbounds %struct.ParseContext_, ptr %101, i32 0, i32 5
  %103 = getelementptr inbounds %struct.Lexer, ptr %102, i32 0, i32 11
  %104 = load i32, ptr %103, align 8
  %105 = icmp eq i32 %104, 64
  br i1 %105, label %106, label %111

106:                                              ; preds = %99
  %107 = load ptr, ptr %19, align 8
  %108 = getelementptr inbounds %struct.ParseContext_, ptr %107, i32 0, i32 2
  %109 = getelementptr inbounds %union.SourceSpan, ptr %108, i32 0, i32 0
  %110 = load i64, ptr %109, align 8
  call void (i64, ptr, ...) @sema_error_at(i64 %110, ptr noundef @.str.137)
  store i1 false, ptr %18, align 1
  br label %132

111:                                              ; preds = %99, %85
  %112 = load ptr, ptr %19, align 8
  %113 = call zeroext i1 @try_consume(ptr noundef %112, i32 noundef 8)
  br i1 %113, label %115, label %114

114:                                              ; preds = %111
  br label %116

115:                                              ; preds = %111
  br label %25

116:                                              ; preds = %114
  br label %117

117:                                              ; preds = %116
  %118 = load ptr, ptr %19, align 8
  store ptr %118, ptr %16, align 8
  store i32 9, ptr %17, align 4
  %119 = load ptr, ptr %16, align 8
  %120 = getelementptr inbounds %struct.ParseContext_, ptr %119, i32 0, i32 1
  %121 = load i32, ptr %120, align 8
  %122 = load i32, ptr %17, align 4
  %123 = icmp eq i32 %121, %122
  br i1 %123, label %129, label %124

124:                                              ; preds = %117
  %125 = load ptr, ptr %19, align 8
  %126 = getelementptr inbounds %struct.ParseContext_, ptr %125, i32 0, i32 3
  %127 = getelementptr inbounds %union.SourceSpan, ptr %126, i32 0, i32 0
  %128 = load i64, ptr %127, align 8
  call void (i64, ptr, ...) @sema_error_at_after(i64 %128, ptr noundef @.str.16)
  store i1 false, ptr %18, align 1
  br label %132

129:                                              ; preds = %117
  %130 = load ptr, ptr %19, align 8
  call void @advance(ptr noundef %130)
  br label %131

131:                                              ; preds = %129
  store i1 true, ptr %18, align 1
  br label %132

132:                                              ; preds = %131, %124, %106, %77, %62, %52, %47, %35
  %133 = load i1, ptr %18, align 1
  ret i1 %133
}