; Function Attrs: nounwind uwtable
define internal fastcc noundef zeroext i1 @parse_import(ptr noundef %0) unnamed_addr #0 {
  tail call void @advance(ptr noundef %0) #8
  %2 = getelementptr inbounds i8, ptr %0, i64 40
  %3 = load i32, ptr %2, align 8
  %4 = icmp eq i32 %3, 64
  br i1 %4, label %.lr.ph, label %._crit_edge.thread

.lr.ph:                                           ; preds = %1
  %5 = getelementptr inbounds i8, ptr %0, i64 16
  %6 = getelementptr inbounds i8, ptr %0, i64 64
  %7 = getelementptr inbounds i8, ptr %0, i64 184
  br label %18

8:                                                ; preds = %41
  %9 = icmp eq i32 %43, 64
  br i1 %9, label %18, label %._crit_edge

._crit_edge:                                      ; preds = %8
  br i1 %4, label %10, label %._crit_edge.thread

10:                                               ; preds = %._crit_edge
  %11 = getelementptr inbounds i8, ptr %0, i64 56
  %12 = load i64, ptr %11, align 8
  tail call void (i64, ptr, ...) @sema_error_at(i64 %12, ptr noundef nonnull @.str.133) #8
  br label %.loopexit

._crit_edge.thread:                               ; preds = %1, %._crit_edge
  %.lcssa58 = phi i32 [ %43, %._crit_edge ], [ %3, %1 ]
  %13 = icmp eq i32 %.lcssa58, 76
  %14 = getelementptr inbounds i8, ptr %0, i64 48
  %15 = load i64, ptr %14, align 8
  br i1 %13, label %16, label %17

16:                                               ; preds = %._crit_edge.thread
  tail call void (i64, ptr, ...) @sema_error_at(i64 %15, ptr noundef nonnull @.str.134) #8
  br label %.loopexit

17:                                               ; preds = %._crit_edge.thread
  tail call void (i64, ptr, ...) @sema_error_at(i64 %15, ptr noundef nonnull @.str.135) #8
  br label %.loopexit

18:                                               ; preds = %.lr.ph, %8
  %19 = tail call fastcc ptr @parse_module_path(ptr noundef nonnull %0)
  %.not = icmp eq ptr %19, null
  br i1 %.not, label %.loopexit, label %20

20:                                               ; preds = %18
  %21 = load i32, ptr %2, align 8
  %22 = icmp eq i32 %21, 73
  br i1 %22, label %23, label %30

23:                                               ; preds = %20
  %24 = load ptr, ptr %5, align 8
  %25 = load ptr, ptr getelementptr inbounds ([41 x ptr], ptr @attribute_list, i64 0, i64 30), align 16
  %.not41 = icmp eq ptr %24, %25
  br i1 %.not41, label %29, label %26

26:                                               ; preds = %23
  %27 = getelementptr inbounds i8, ptr %0, i64 48
  %28 = load i64, ptr %27, align 8
  tail call void (i64, ptr, ...) @sema_error_at(i64 %28, ptr noundef nonnull @.str.136) #8
  br label %.loopexit

29:                                               ; preds = %23
  tail call void @advance(ptr noundef nonnull %0) #8
  br label %30

30:                                               ; preds = %29, %20
  %31 = load ptr, ptr %6, align 8
  %32 = tail call zeroext i1 @unit_add_import(ptr noundef %31, ptr noundef nonnull %19, i1 noundef zeroext %22) #8
  %33 = load i32, ptr %2, align 8
  %34 = icmp eq i32 %33, 7
  br i1 %34, label %35, label %41

35:                                               ; preds = %30
  %36 = load i32, ptr %7, align 8
  %37 = icmp eq i32 %36, 64
  br i1 %37, label %38, label %41

38:                                               ; preds = %35
  %39 = getelementptr inbounds i8, ptr %0, i64 48
  %40 = load i64, ptr %39, align 8
  tail call void (i64, ptr, ...) @sema_error_at(i64 %40, ptr noundef nonnull @.str.137) #8
  br label %.loopexit

41:                                               ; preds = %35, %30
  %42 = tail call zeroext i1 @try_consume(ptr noundef nonnull %0, i32 noundef 8) #8
  %43 = load i32, ptr %2, align 8
  br i1 %42, label %8, label %44

44:                                               ; preds = %41
  %45 = icmp eq i32 %43, 9
  br i1 %45, label %49, label %46

46:                                               ; preds = %44
  %47 = getelementptr inbounds i8, ptr %0, i64 56
  %48 = load i64, ptr %47, align 8
  tail call void (i64, ptr, ...) @sema_error_at_after(i64 %48, ptr noundef nonnull @.str.16) #8
  br label %.loopexit

49:                                               ; preds = %44
  tail call void @advance(ptr noundef nonnull %0) #8
  br label %.loopexit

.loopexit:                                        ; preds = %18, %49, %46, %38, %26, %17, %16, %10
  %.037 = phi i1 [ false, %26 ], [ false, %38 ], [ true, %49 ], [ false, %46 ], [ false, %10 ], [ false, %16 ], [ false, %17 ], [ false, %18 ]
  ret i1 %.037
}